target datalayout = "e-m:e-p270:32:32-p271:32:32-p272:64:64-i64:64-i128:128-f80:128-n8:16:32:64-S128"
target triple = "x86_64-pc-linux-gnu"

%struct.prte_process_info_t = type { %struct.pmix_proc, %struct.pmix_proc, ptr, %struct.pmix_proc, i32, i32, i32, ptr, ptr, i32, i8, ptr, i16, ptr, ptr, i8, ptr, i8 }
%struct.pmix_proc = type { [256 x i8], i32 }
%struct.pmix_value = type { i16, %union.anon }
%union.anon = type { %struct.pmix_envar_t }
%struct.pmix_envar_t = type { ptr, ptr, i8 }

@bucket = internal global ptr null, align 8
@.str.6 = private unnamed_addr constant [8 x i8] c"prted.c\00", align 1
@prte_process_info = external global %struct.prte_process_info_t, align 8
@.str.30 = private unnamed_addr constant [10 x i8] c"pmix.puri\00", align 1
@.str.31 = private unnamed_addr constant [37 x i8] c"PMIX ERROR: %s in file %s at line %d\00", align 1
@ncollected = internal global i32 0, align 4
@mybucket = internal global ptr null, align 8

; Function Attrs: nounwind uwtable
define internal void @rollup(i32 noundef %0, ptr noundef %1, ptr noundef %2, i32 noundef %3, ptr noundef %4) #0 {
  %6 = alloca i32, align 4
  %7 = alloca ptr, align 8
  %8 = alloca ptr, align 8
  %9 = alloca i32, align 4
  %10 = alloca ptr, align 8
  %11 = alloca %struct.pmix_proc, align 4
  %12 = alloca i32, align 4
  %13 = alloca %struct.pmix_value, align 8
  %14 = alloca %struct.pmix_proc, align 4
  %15 = alloca i32, align 4
  store i32 %0, ptr %6, align 4, !tbaa !4
  store ptr %1, ptr %7, align 8, !tbaa !131
  store ptr %2, ptr %8, align 8, !tbaa !16
  store i32 %3, ptr %9, align 4, !tbaa !4
  store ptr %4, ptr %10, align 8, !tbaa !21
  call void @llvm.lifetime.start.p0(i64 260, ptr %11) #12
  call void @llvm.lifetime.start.p0(i64 4, ptr %12) #12
  call void @llvm.lifetime.start.p0(i64 32, ptr %13) #12
  call void @llvm.lifetime.start.p0(i64 260, ptr %14) #12
  call void @llvm.lifetime.start.p0(i64 4, ptr %15) #12
  %16 = load i32, ptr @ncollected, align 4, !tbaa !4
  %17 = add nsw i32 %16, 1
  store i32 %17, ptr @ncollected, align 4, !tbaa !4
  %18 = load ptr, ptr %7, align 8, !tbaa !131
  %19 = call zeroext i1 @PMIx_Check_procid(ptr noundef %18, ptr noundef @prte_process_info)
  br i1 %19, label %20, label %38

20:                                               ; preds = %5
  %21 = call ptr @PMIx_Data_buffer_create()
  store ptr %21, ptr @mybucket, align 8, !tbaa !16
  %22 = load ptr, ptr @mybucket, align 8, !tbaa !16
  %23 = load ptr, ptr %8, align 8, !tbaa !16
  %24 = call i32 @PMIx_Data_copy_payload(ptr noundef %22, ptr noundef %23)
  store i32 %24, ptr %15, align 4, !tbaa !4
  %25 = load i32, ptr %15, align 4, !tbaa !4
  %26 = icmp ne i32 0, %25
  br i1 %26, label %27, label %37

27:                                               ; preds = %20
  br label %28

28:                                               ; preds = %27
  %29 = load i32, ptr %15, align 4, !tbaa !4
  %30 = icmp ne i32 -2, %29
  br i1 %30, label %31, label %34

31:                                               ; preds = %28
  %32 = load i32, ptr %15, align 4, !tbaa !4
  %33 = call ptr @PMIx_Error_string(i32 noundef %32)
  call void (i32, ptr, ...) @pmix_output(i32 noundef 0, ptr noundef @.str.31, ptr noundef %33, ptr noundef @.str.6, i32 noundef 856)
  br label %34

34:                                               ; preds = %31, %28
  br label %35

35:                                               ; preds = %34
  br label %36

36:                                               ; preds = %35
  br label %104

37:                                               ; preds = %20
  br label %103

38:                                               ; preds = %5
  %39 = load ptr, ptr @bucket, align 8, !tbaa !16
  %40 = load ptr, ptr %8, align 8, !tbaa !16
  %41 = call i32 @PMIx_Data_copy_payload(ptr noundef %39, ptr noundef %40)
  store i32 %41, ptr %15, align 4, !tbaa !4
  %42 = load i32, ptr %15, align 4, !tbaa !4
  %43 = icmp ne i32 0, %42
  br i1 %43, label %44, label %54

44:                                               ; preds = %38
  br label %45

45:                                               ; preds = %44
  %46 = load i32, ptr %15, align 4, !tbaa !4
  %47 = icmp ne i32 -2, %46
  br i1 %47, label %48, label %51

48:                                               ; preds = %45
  %49 = load i32, ptr %15, align 4, !tbaa !4
  %50 = call ptr @PMIx_Error_string(i32 noundef %49)
  call void (i32, ptr, ...) @pmix_output(i32 noundef 0, ptr noundef @.str.31, ptr noundef %50, ptr noundef @.str.6, i32 noundef 863)
  br label %51

51:                                               ; preds = %48, %45
  br label %52

52:                                               ; preds = %51
  br label %53

53:                                               ; preds = %52
  br label %104

54:                                               ; preds = %38
  store i32 1, ptr %12, align 4, !tbaa !4
  %55 = load ptr, ptr %8, align 8, !tbaa !16
  %56 = call i32 @PMIx_Data_unpack(ptr noundef null, ptr noundef %55, ptr noundef %11, ptr noundef %12, i16 noundef zeroext 22)
  store i32 %56, ptr %15, align 4, !tbaa !4
  %57 = load i32, ptr %15, align 4, !tbaa !4
  %58 = icmp ne i32 0, %57
  br i1 %58, label %59, label %69

59:                                               ; preds = %54
  br label %60

60:                                               ; preds = %59
  %61 = load i32, ptr %15, align 4, !tbaa !4
  %62 = icmp ne i32 -2, %61
  br i1 %62, label %63, label %66

63:                                               ; preds = %60
  %64 = load i32, ptr %15, align 4, !tbaa !4
  %65 = call ptr @PMIx_Error_string(i32 noundef %64)
  call void (i32, ptr, ...) @pmix_output(i32 noundef 0, ptr noundef @.str.31, ptr noundef %65, ptr noundef @.str.6, i32 noundef 871)
  br label %66

66:                                               ; preds = %63, %60
  br label %67

67:                                               ; preds = %66
  br label %68

68:                                               ; preds = %67
  br label %104

69:                                               ; preds = %54
  %70 = load ptr, ptr %7, align 8, !tbaa !131
  %71 = getelementptr inbounds nuw %struct.pmix_proc, ptr %70, i32 0, i32 1
  %72 = load i32, ptr %71, align 4, !tbaa !78
  call void @PMIx_Load_procid(ptr noundef %14, ptr noundef @prte_process_info, i32 noundef %72)
  call void @PMIx_Value_construct(ptr noundef %13)
  store i32 1, ptr %12, align 4, !tbaa !4
  %73 = load ptr, ptr %8, align 8, !tbaa !16
  %74 = getelementptr inbounds nuw %struct.pmix_value, ptr %13, i32 0, i32 1
  %75 = call i32 @PMIx_Data_unpack(ptr noundef %14, ptr noundef %73, ptr noundef %74, ptr noundef %12, i16 noundef zeroext 3)
  store i32 %75, ptr %15, align 4, !tbaa !4
  %76 = load i32, ptr %15, align 4, !tbaa !4
  %77 = icmp ne i32 0, %76
  br i1 %77, label %78, label %88

78:                                               ; preds = %69
  br label %79

79:                                               ; preds = %78
  %80 = load i32, ptr %15, align 4, !tbaa !4
  %81 = icmp ne i32 -2, %80
  br i1 %81, label %82, label %85

82:                                               ; preds = %79
  %83 = load i32, ptr %15, align 4, !tbaa !4
  %84 = call ptr @PMIx_Error_string(i32 noundef %83)
  call void (i32, ptr, ...) @pmix_output(i32 noundef 0, ptr noundef @.str.31, ptr noundef %84, ptr noundef @.str.6, i32 noundef 879)
  br label %85

85:                                               ; preds = %82, %79
  br label %86

86:                                               ; preds = %85
  br label %87

87:                                               ; preds = %86
  br label %104

88:                                               ; preds = %69
  %89 = call i32 @PMIx_Store_internal(ptr noundef %14, ptr noundef @.str.30, ptr noundef %13)
  store i32 %89, ptr %15, align 4, !tbaa !4
  %90 = load i32, ptr %15, align 4, !tbaa !4
  %91 = icmp ne i32 0, %90
  br i1 %91, label %92, label %102

92:                                               ; preds = %88
  br label %93

93:                                               ; preds = %92
  %94 = load i32, ptr %15, align 4, !tbaa !4
  %95 = icmp ne i32 -2, %94
  br i1 %95, label %96, label %99

96:                                               ; preds = %93
  %97 = load i32, ptr %15, align 4, !tbaa !4
  %98 = call ptr @PMIx_Error_string(i32 noundef %97)
  call void (i32, ptr, ...) @pmix_output(i32 noundef 0, ptr noundef @.str.31, ptr noundef %98, ptr noundef @.str.6, i32 noundef 884)
  br label %99

99:                                               ; preds = %96, %93
  br label %100

100:                                              ; preds = %99
  br label %101

101:                                              ; preds = %100
  call void @PMIx_Value_destruct(ptr noundef %13)
  br label %104

102:                                              ; preds = %88
  call void @PMIx_Value_destruct(ptr noundef %13)
  br label %103

103:                                              ; preds = %102, %37
  br label %104

104:                                              ; preds = %103, %101, %87, %68, %53, %36
  call void @report_prted()
  call void @llvm.lifetime.end.p0(i64 4, ptr %15) #12
  call void @llvm.lifetime.end.p0(i64 260, ptr %14) #12
  call void @llvm.lifetime.end.p0(i64 32, ptr %13) #12
  call void @llvm.lifetime.end.p0(i64 4, ptr %12) #12
  call void @llvm.lifetime.end.p0(i64 260, ptr %11) #12
  ret void
}