; Function Attrs: nounwind uwtable
define internal void @rollup(i32 %0, ptr noundef %1, ptr noundef %2, i32 %3, ptr readnone captures(none) %4) #0 {
  %6 = alloca %struct.pmix_proc, align 4
  %7 = alloca i32, align 4
  %8 = alloca %struct.pmix_value, align 8
  %9 = alloca %struct.pmix_proc, align 4
  call void @llvm.lifetime.start.p0(i64 260, ptr nonnull %6) #19
  call void @llvm.lifetime.start.p0(i64 4, ptr nonnull %7) #19
  call void @llvm.lifetime.start.p0(i64 32, ptr nonnull %8) #19
  call void @llvm.lifetime.start.p0(i64 260, ptr nonnull %9) #19
  %10 = load i32, ptr @ncollected, align 4, !tbaa !4
  %11 = add nsw i32 %10, 1
  store i32 %11, ptr @ncollected, align 4, !tbaa !4
  %12 = tail call zeroext i1 @PMIx_Check_procid(ptr noundef %1, ptr noundef nonnull @prte_process_info) #19
  br i1 %12, label %13, label %18

13:                                               ; preds = %5
  %14 = tail call ptr @PMIx_Data_buffer_create() #19
  store ptr %14, ptr @mybucket, align 8, !tbaa !14
  %15 = tail call i32 @PMIx_Data_copy_payload(ptr noundef %14, ptr noundef %2) #19
  switch i32 %15, label %16 [
    i32 -2, label %40
    i32 0, label %40
  ]

16:                                               ; preds = %13
  %17 = tail call ptr @PMIx_Error_string(i32 noundef %15) #19
  tail call void (i32, ptr, ...) @pmix_output(i32 noundef 0, ptr noundef nonnull @.str.31, ptr noundef %17, ptr noundef nonnull @.str.6, i32 noundef 856) #19
  br label %40

18:                                               ; preds = %5
  %19 = load ptr, ptr @bucket, align 8, !tbaa !14
  %20 = tail call i32 @PMIx_Data_copy_payload(ptr noundef %19, ptr noundef %2) #19
  switch i32 %20, label %21 [
    i32 0, label %23
    i32 -2, label %40
  ]

21:                                               ; preds = %18
  %22 = tail call ptr @PMIx_Error_string(i32 noundef %20) #19
  tail call void (i32, ptr, ...) @pmix_output(i32 noundef 0, ptr noundef nonnull @.str.31, ptr noundef %22, ptr noundef nonnull @.str.6, i32 noundef 863) #19
  br label %40

23:                                               ; preds = %18
  store i32 1, ptr %7, align 4, !tbaa !4
  %24 = call i32 @PMIx_Data_unpack(ptr noundef null, ptr noundef %2, ptr noundef nonnull %6, ptr noundef nonnull %7, i16 noundef zeroext 22) #19
  switch i32 %24, label %25 [
    i32 0, label %27
    i32 -2, label %40
  ]

25:                                               ; preds = %23
  %26 = call ptr @PMIx_Error_string(i32 noundef %24) #19
  call void (i32, ptr, ...) @pmix_output(i32 noundef 0, ptr noundef nonnull @.str.31, ptr noundef %26, ptr noundef nonnull @.str.6, i32 noundef 871) #19
  br label %40

27:                                               ; preds = %23
  %28 = getelementptr inbounds nuw i8, ptr %1, i64 256
  %29 = load i32, ptr %28, align 4, !tbaa !77
  call void @PMIx_Load_procid(ptr noundef nonnull %9, ptr noundef nonnull @prte_process_info, i32 noundef %29) #19
  call void @PMIx_Value_construct(ptr noundef nonnull %8) #19
  store i32 1, ptr %7, align 4, !tbaa !4
  %30 = getelementptr inbounds nuw i8, ptr %8, i64 8
  %31 = call i32 @PMIx_Data_unpack(ptr noundef nonnull %9, ptr noundef %2, ptr noundef nonnull %30, ptr noundef nonnull %7, i16 noundef zeroext 3) #19
  switch i32 %31, label %32 [
    i32 0, label %34
    i32 -2, label %40
  ]

32:                                               ; preds = %27
  %33 = call ptr @PMIx_Error_string(i32 noundef %31) #19
  call void (i32, ptr, ...) @pmix_output(i32 noundef 0, ptr noundef nonnull @.str.31, ptr noundef %33, ptr noundef nonnull @.str.6, i32 noundef 879) #19
  br label %40

34:                                               ; preds = %27
  %35 = call i32 @PMIx_Store_internal(ptr noundef nonnull %9, ptr noundef nonnull @.str.30, ptr noundef nonnull %8) #19
  switch i32 %35, label %36 [
    i32 0, label %39
    i32 -2, label %38
  ]

36:                                               ; preds = %34
  %37 = call ptr @PMIx_Error_string(i32 noundef %35) #19
  call void (i32, ptr, ...) @pmix_output(i32 noundef 0, ptr noundef nonnull @.str.31, ptr noundef %37, ptr noundef nonnull @.str.6, i32 noundef 884) #19
  br label %38

38:                                               ; preds = %34, %36
  call void @PMIx_Value_destruct(ptr noundef nonnull %8) #19
  br label %40

39:                                               ; preds = %34
  call void @PMIx_Value_destruct(ptr noundef nonnull %8) #19
  br label %40

40:                                               ; preds = %27, %23, %18, %13, %13, %39, %32, %25, %21, %16, %38
  call fastcc void @report_prted()
  call void @llvm.lifetime.end.p0(i64 260, ptr nonnull %9) #19
  call void @llvm.lifetime.end.p0(i64 32, ptr nonnull %8) #19
  call void @llvm.lifetime.end.p0(i64 4, ptr nonnull %7) #19
  call void @llvm.lifetime.end.p0(i64 260, ptr nonnull %6) #19
  ret void
}